target datalayout = "e-m:e-p270:32:32-p271:32:32-p272:64:64-i64:64-i128:128-f80:128-n8:16:32:64-S128"
target triple = "x86_64-pc-linux-gnu"

%struct.A_Expr = type { i32, i32, ptr, ptr, ptr, i32 }
%struct.Node = type { i32 }
%union.ListCell = type { ptr }

; Function Attrs: inlinehint nounwind uwtable
define internal ptr @newNode(i64 noundef %0, i32 noundef %1) #2 {
  %3 = alloca i64, align 8
  %4 = alloca i32, align 4
  %5 = alloca ptr, align 8
  store i64 %0, ptr %3, align 8
  store i32 %1, ptr %4, align 4
  call void @llvm.lifetime.start.p0(i64 8, ptr %5) #6
  %6 = load i64, ptr %3, align 8
  %7 = call ptr @palloc0(i64 noundef %6)
  store ptr %7, ptr %5, align 8
  %8 = load i32, ptr %4, align 4
  %9 = load ptr, ptr %5, align 8
  %10 = getelementptr inbounds nuw %struct.Node, ptr %9, i32 0, i32 0
  store i32 %8, ptr %10, align 4
  %11 = load ptr, ptr %5, align 8
  call void @llvm.lifetime.end.p0(i64 8, ptr %5) #6
  ret ptr %11
}

; Function Attrs: nounwind uwtable
define dso_local ptr @makeSimpleA_Expr(i32 noundef %0, ptr noundef %1, ptr noundef %2, ptr noundef %3, i32 noundef %4) #0 {
  %6 = alloca i32, align 4
  %7 = alloca ptr, align 8
  %8 = alloca ptr, align 8
  %9 = alloca ptr, align 8
  %10 = alloca i32, align 4
  %11 = alloca ptr, align 8
  %12 = alloca %union.ListCell, align 8
  store i32 %0, ptr %6, align 4
  store ptr %1, ptr %7, align 8
  store ptr %2, ptr %8, align 8
  store ptr %3, ptr %9, align 8
  store i32 %4, ptr %10, align 4
  call void @llvm.lifetime.start.p0(i64 8, ptr %11) #6
  %13 = call ptr @newNode(i64 noundef 40, i32 noundef 71)
  store ptr %13, ptr %11, align 8
  %14 = load i32, ptr %6, align 4
  %15 = load ptr, ptr %11, align 8
  %16 = getelementptr inbounds nuw %struct.A_Expr, ptr %15, i32 0, i32 1
  store i32 %14, ptr %16, align 4
  %17 = load ptr, ptr %7, align 8
  %18 = call ptr @makeString(ptr noundef %17)
  store ptr %18, ptr %12, align 8
  %19 = getelementptr inbounds nuw %union.ListCell, ptr %12, i32 0, i32 0
  %20 = load ptr, ptr %19, align 8
  %21 = call ptr @list_make1_impl(i32 noundef 1, ptr %20)
  %22 = load ptr, ptr %11, align 8
  %23 = getelementptr inbounds nuw %struct.A_Expr, ptr %22, i32 0, i32 2
  store ptr %21, ptr %23, align 8
  %24 = load ptr, ptr %8, align 8
  %25 = load ptr, ptr %11, align 8
  %26 = getelementptr inbounds nuw %struct.A_Expr, ptr %25, i32 0, i32 3
  store ptr %24, ptr %26, align 8
  %27 = load ptr, ptr %9, align 8
  %28 = load ptr, ptr %11, align 8
  %29 = getelementptr inbounds nuw %struct.A_Expr, ptr %28, i32 0, i32 4
  store ptr %27, ptr %29, align 8
  %30 = load i32, ptr %10, align 4
  %31 = load ptr, ptr %11, align 8
  %32 = getelementptr inbounds nuw %struct.A_Expr, ptr %31, i32 0, i32 5
  store i32 %30, ptr %32, align 8
  %33 = load ptr, ptr %11, align 8
  call void @llvm.lifetime.end.p0(i64 8, ptr %11) #6
  ret ptr %33
}