; Function Attrs: nounwind uwtable
define dso_local noundef ptr @makeSimpleA_Expr(i32 noundef %0, ptr noundef %1, ptr noundef %2, ptr noundef %3, i32 noundef %4) local_unnamed_addr #0 {
  %6 = tail call noundef ptr @palloc0(i64 noundef 40) #7
  store i32 71, ptr %6, align 4
  %7 = getelementptr inbounds nuw i8, ptr %6, i64 4
  store i32 %0, ptr %7, align 4
  %8 = tail call ptr @makeString(ptr noundef %1) #7
  %9 = tail call ptr @list_make1_impl(i32 noundef 1, ptr %8) #7
  %10 = getelementptr inbounds nuw i8, ptr %6, i64 8
  store ptr %9, ptr %10, align 8
  %11 = getelementptr inbounds nuw i8, ptr %6, i64 16
  store ptr %2, ptr %11, align 8
  %12 = getelementptr inbounds nuw i8, ptr %6, i64 24
  store ptr %3, ptr %12, align 8
  %13 = getelementptr inbounds nuw i8, ptr %6, i64 32
  store i32 %4, ptr %13, align 8
  ret ptr %6
}